; Function Attrs: nounwind uwtable
define dso_local noundef ptr @ECPGmake_struct_type(ptr noundef captures(address_is_null) %0, i32 noundef %1, ptr noundef %2, ptr noundef %3) local_unnamed_addr #0 {
  %5 = tail call ptr @mm_alloc(i64 noundef 48) #7
  store i32 %1, ptr %5, align 8
  %6 = getelementptr inbounds nuw i8, ptr %5, i64 8
  store ptr null, ptr %6, align 8
  %7 = tail call ptr @mm_strdup(ptr noundef nonnull @.str) #7
  %8 = getelementptr inbounds nuw i8, ptr %5, i64 16
  store ptr %7, ptr %8, align 8
  %9 = getelementptr inbounds nuw i8, ptr %5, i64 24
  tail call void @llvm.memset.p0.i64(ptr noundef nonnull align 8 dereferenceable(20) %9, i8 0, i64 20, i1 false)
  %10 = tail call ptr @mm_strdup(ptr noundef %2) #7
  store ptr %10, ptr %6, align 8
  %11 = tail call ptr @ECPGstruct_member_dup(ptr noundef %0)
  %12 = getelementptr inbounds nuw i8, ptr %5, i64 32
  store ptr %11, ptr %12, align 8
  %13 = tail call ptr @mm_strdup(ptr noundef %3) #7
  store ptr %13, ptr %9, align 8
  ret ptr %5
}